target datalayout = "e-m:e-p270:32:32-p271:32:32-p272:64:64-i64:64-i128:128-f80:128-n8:16:32:64-S128"
target triple = "x86_64-pc-linux-gnu"

%struct.FLAC__BitReader = type { ptr, i32, i32, i32, i32, i32, i32, i32, i32, i32, i32, i32, ptr, ptr }

; Function Attrs: inlinehint nounwind sspstrong uwtable
define internal i32 @FLAC__clz_uint64(i64 noundef %0) #5 {
  %2 = alloca i64, align 8
  store i64 %0, ptr %2, align 8, !tbaa !28
  %3 = load i64, ptr %2, align 8, !tbaa !28
  %4 = call i64 @llvm.ctlz.i64(i64 %3, i1 true)
  %5 = trunc i64 %4 to i32
  ret i32 %5
}

; Function Attrs: nounwind sspstrong uwtable
define hidden i32 @FLAC__bitreader_read_unary_unsigned(ptr noundef %0, ptr noundef %1) #0 {
  %3 = alloca i32, align 4
  %4 = alloca ptr, align 8
  %5 = alloca ptr, align 8
  %6 = alloca i32, align 4
  %7 = alloca i64, align 8
  %8 = alloca i32, align 4
  %9 = alloca i32, align 4
  %10 = alloca i64, align 8
  store ptr %0, ptr %4, align 8, !tbaa !3
  store ptr %1, ptr %5, align 8, !tbaa !33
  call void @llvm.lifetime.start.p0(i64 4, ptr %6) #10
  %11 = load ptr, ptr %5, align 8, !tbaa !33
  store i32 0, ptr %11, align 4, !tbaa !32
  br label %12

12:                                               ; preds = %161, %2
  br label %13

13:                                               ; preds = %12
  br label %14

14:                                               ; preds = %90, %13
  %15 = load ptr, ptr %4, align 8, !tbaa !3
  %16 = getelementptr inbounds nuw %struct.FLAC__BitReader, ptr %15, i32 0, i32 4
  %17 = load i32, ptr %16, align 4, !tbaa !16
  %18 = load ptr, ptr %4, align 8, !tbaa !3
  %19 = getelementptr inbounds nuw %struct.FLAC__BitReader, ptr %18, i32 0, i32 2
  %20 = load i32, ptr %19, align 4, !tbaa !14
  %21 = icmp ult i32 %17, %20
  br i1 %21, label %22, label %91

22:                                               ; preds = %14
  call void @llvm.lifetime.start.p0(i64 8, ptr %7) #10
  %23 = load ptr, ptr %4, align 8, !tbaa !3
  %24 = getelementptr inbounds nuw %struct.FLAC__BitReader, ptr %23, i32 0, i32 5
  %25 = load i32, ptr %24, align 8, !tbaa !15
  %26 = icmp ult i32 %25, 64
  br i1 %26, label %27, label %42

27:                                               ; preds = %22
  %28 = load ptr, ptr %4, align 8, !tbaa !3
  %29 = getelementptr inbounds nuw %struct.FLAC__BitReader, ptr %28, i32 0, i32 0
  %30 = load ptr, ptr %29, align 8, !tbaa !8
  %31 = load ptr, ptr %4, align 8, !tbaa !3
  %32 = getelementptr inbounds nuw %struct.FLAC__BitReader, ptr %31, i32 0, i32 4
  %33 = load i32, ptr %32, align 4, !tbaa !16
  %34 = zext i32 %33 to i64
  %35 = getelementptr inbounds nuw i64, ptr %30, i64 %34
  %36 = load i64, ptr %35, align 8, !tbaa !28
  %37 = load ptr, ptr %4, align 8, !tbaa !3
  %38 = getelementptr inbounds nuw %struct.FLAC__BitReader, ptr %37, i32 0, i32 5
  %39 = load i32, ptr %38, align 8, !tbaa !15
  %40 = zext i32 %39 to i64
  %41 = shl i64 %36, %40
  br label %43

42:                                               ; preds = %22
  br label %43

43:                                               ; preds = %42, %27
  %44 = phi i64 [ %41, %27 ], [ 0, %42 ]
  store i64 %44, ptr %7, align 8, !tbaa !28
  %45 = load i64, ptr %7, align 8, !tbaa !28
  %46 = icmp ne i64 %45, 0
  br i1 %46, label %47, label %73

47:                                               ; preds = %43
  %48 = load i64, ptr %7, align 8, !tbaa !28
  %49 = call i32 @FLAC__clz_uint64(i64 noundef %48)
  store i32 %49, ptr %6, align 4, !tbaa !32
  %50 = load i32, ptr %6, align 4, !tbaa !32
  %51 = load ptr, ptr %5, align 8, !tbaa !33
  %52 = load i32, ptr %51, align 4, !tbaa !32
  %53 = add i32 %52, %50
  store i32 %53, ptr %51, align 4, !tbaa !32
  %54 = load i32, ptr %6, align 4, !tbaa !32
  %55 = add i32 %54, 1
  store i32 %55, ptr %6, align 4, !tbaa !32
  %56 = load i32, ptr %6, align 4, !tbaa !32
  %57 = load ptr, ptr %4, align 8, !tbaa !3
  %58 = getelementptr inbounds nuw %struct.FLAC__BitReader, ptr %57, i32 0, i32 5
  %59 = load i32, ptr %58, align 8, !tbaa !15
  %60 = add i32 %59, %56
  store i32 %60, ptr %58, align 8, !tbaa !15
  %61 = load ptr, ptr %4, align 8, !tbaa !3
  %62 = getelementptr inbounds nuw %struct.FLAC__BitReader, ptr %61, i32 0, i32 5
  %63 = load i32, ptr %62, align 8, !tbaa !15
  %64 = icmp uge i32 %63, 64
  br i1 %64, label %65, label %72

65:                                               ; preds = %47
  %66 = load ptr, ptr %4, align 8, !tbaa !3
  %67 = getelementptr inbounds nuw %struct.FLAC__BitReader, ptr %66, i32 0, i32 4
  %68 = load i32, ptr %67, align 4, !tbaa !16
  %69 = add i32 %68, 1
  store i32 %69, ptr %67, align 4, !tbaa !16
  %70 = load ptr, ptr %4, align 8, !tbaa !3
  %71 = getelementptr inbounds nuw %struct.FLAC__BitReader, ptr %70, i32 0, i32 5
  store i32 0, ptr %71, align 8, !tbaa !15
  br label %72

72:                                               ; preds = %65, %47
  store i32 1, ptr %3, align 4
  store i32 1, ptr %8, align 4
  br label %88

73:                                               ; preds = %43
  %74 = load ptr, ptr %4, align 8, !tbaa !3
  %75 = getelementptr inbounds nuw %struct.FLAC__BitReader, ptr %74, i32 0, i32 5
  %76 = load i32, ptr %75, align 8, !tbaa !15
  %77 = sub i32 64, %76
  %78 = load ptr, ptr %5, align 8, !tbaa !33
  %79 = load i32, ptr %78, align 4, !tbaa !32
  %80 = add i32 %79, %77
  store i32 %80, ptr %78, align 4, !tbaa !32
  %81 = load ptr, ptr %4, align 8, !tbaa !3
  %82 = getelementptr inbounds nuw %struct.FLAC__BitReader, ptr %81, i32 0, i32 4
  %83 = load i32, ptr %82, align 4, !tbaa !16
  %84 = add i32 %83, 1
  store i32 %84, ptr %82, align 4, !tbaa !16
  %85 = load ptr, ptr %4, align 8, !tbaa !3
  %86 = getelementptr inbounds nuw %struct.FLAC__BitReader, ptr %85, i32 0, i32 5
  store i32 0, ptr %86, align 8, !tbaa !15
  br label %87

87:                                               ; preds = %73
  store i32 0, ptr %8, align 4
  br label %88

88:                                               ; preds = %87, %72
  call void @llvm.lifetime.end.p0(i64 8, ptr %7) #10
  %89 = load i32, ptr %8, align 4
  switch i32 %89, label %162 [
    i32 0, label %90
  ]

90:                                               ; preds = %88
  br label %14, !llvm.loop !47

91:                                               ; preds = %14
  %92 = load ptr, ptr %4, align 8, !tbaa !3
  %93 = getelementptr inbounds nuw %struct.FLAC__BitReader, ptr %92, i32 0, i32 3
  %94 = load i32, ptr %93, align 8, !tbaa !13
  %95 = mul i32 %94, 8
  %96 = load ptr, ptr %4, align 8, !tbaa !3
  %97 = getelementptr inbounds nuw %struct.FLAC__BitReader, ptr %96, i32 0, i32 5
  %98 = load i32, ptr %97, align 8, !tbaa !15
  %99 = icmp ugt i32 %95, %98
  br i1 %99, label %100, label %156

100:                                              ; preds = %91
  call void @llvm.lifetime.start.p0(i64 4, ptr %9) #10
  %101 = load ptr, ptr %4, align 8, !tbaa !3
  %102 = getelementptr inbounds nuw %struct.FLAC__BitReader, ptr %101, i32 0, i32 3
  %103 = load i32, ptr %102, align 8, !tbaa !13
  %104 = mul i32 %103, 8
  store i32 %104, ptr %9, align 4, !tbaa !32
  call void @llvm.lifetime.start.p0(i64 8, ptr %10) #10
  %105 = load ptr, ptr %4, align 8, !tbaa !3
  %106 = getelementptr inbounds nuw %struct.FLAC__BitReader, ptr %105, i32 0, i32 0
  %107 = load ptr, ptr %106, align 8, !tbaa !8
  %108 = load ptr, ptr %4, align 8, !tbaa !3
  %109 = getelementptr inbounds nuw %struct.FLAC__BitReader, ptr %108, i32 0, i32 4
  %110 = load i32, ptr %109, align 4, !tbaa !16
  %111 = zext i32 %110 to i64
  %112 = getelementptr inbounds nuw i64, ptr %107, i64 %111
  %113 = load i64, ptr %112, align 8, !tbaa !28
  %114 = load i32, ptr %9, align 4, !tbaa !32
  %115 = sub i32 64, %114
  %116 = zext i32 %115 to i64
  %117 = shl i64 -1, %116
  %118 = and i64 %113, %117
  %119 = load ptr, ptr %4, align 8, !tbaa !3
  %120 = getelementptr inbounds nuw %struct.FLAC__BitReader, ptr %119, i32 0, i32 5
  %121 = load i32, ptr %120, align 8, !tbaa !15
  %122 = zext i32 %121 to i64
  %123 = shl i64 %118, %122
  store i64 %123, ptr %10, align 8, !tbaa !28
  %124 = load i64, ptr %10, align 8, !tbaa !28
  %125 = icmp ne i64 %124, 0
  br i1 %125, label %126, label %140

126:                                              ; preds = %100
  %127 = load i64, ptr %10, align 8, !tbaa !28
  %128 = call i32 @FLAC__clz_uint64(i64 noundef %127)
  store i32 %128, ptr %6, align 4, !tbaa !32
  %129 = load i32, ptr %6, align 4, !tbaa !32
  %130 = load ptr, ptr %5, align 8, !tbaa !33
  %131 = load i32, ptr %130, align 4, !tbaa !32
  %132 = add i32 %131, %129
  store i32 %132, ptr %130, align 4, !tbaa !32
  %133 = load i32, ptr %6, align 4, !tbaa !32
  %134 = add i32 %133, 1
  store i32 %134, ptr %6, align 4, !tbaa !32
  %135 = load i32, ptr %6, align 4, !tbaa !32
  %136 = load ptr, ptr %4, align 8, !tbaa !3
  %137 = getelementptr inbounds nuw %struct.FLAC__BitReader, ptr %136, i32 0, i32 5
  %138 = load i32, ptr %137, align 8, !tbaa !15
  %139 = add i32 %138, %135
  store i32 %139, ptr %137, align 8, !tbaa !15
  store i32 1, ptr %3, align 4
  store i32 1, ptr %8, align 4
  br label %153

140:                                              ; preds = %100
  %141 = load i32, ptr %9, align 4, !tbaa !32
  %142 = load ptr, ptr %4, align 8, !tbaa !3
  %143 = getelementptr inbounds nuw %struct.FLAC__BitReader, ptr %142, i32 0, i32 5
  %144 = load i32, ptr %143, align 8, !tbaa !15
  %145 = sub i32 %141, %144
  %146 = load ptr, ptr %5, align 8, !tbaa !33
  %147 = load i32, ptr %146, align 4, !tbaa !32
  %148 = add i32 %147, %145
  store i32 %148, ptr %146, align 4, !tbaa !32
  %149 = load i32, ptr %9, align 4, !tbaa !32
  %150 = load ptr, ptr %4, align 8, !tbaa !3
  %151 = getelementptr inbounds nuw %struct.FLAC__BitReader, ptr %150, i32 0, i32 5
  store i32 %149, ptr %151, align 8, !tbaa !15
  br label %152

152:                                              ; preds = %140
  store i32 0, ptr %8, align 4
  br label %153

153:                                              ; preds = %152, %126
  call void @llvm.lifetime.end.p0(i64 8, ptr %10) #10
  call void @llvm.lifetime.end.p0(i64 4, ptr %9) #10
  %154 = load i32, ptr %8, align 4
  switch i32 %154, label %162 [
    i32 0, label %155
  ]

155:                                              ; preds = %153
  br label %156

156:                                              ; preds = %155, %91
  %157 = load ptr, ptr %4, align 8, !tbaa !3
  %158 = call i32 @bitreader_read_from_client_(ptr noundef %157)
  %159 = icmp ne i32 %158, 0
  br i1 %159, label %161, label %160

160:                                              ; preds = %156
  store i32 0, ptr %3, align 4
  store i32 1, ptr %8, align 4
  br label %162

161:                                              ; preds = %156
  br label %12

162:                                              ; preds = %160, %153, %88
  call void @llvm.lifetime.end.p0(i64 4, ptr %6) #10
  %163 = load i32, ptr %3, align 4
  ret i32 %163
}