; Function Attrs: nounwind sspstrong uwtable
define hidden range(i32 0, 2) i32 @FLAC__bitreader_read_unary_unsigned(ptr noundef captures(none) %0, ptr noundef captures(none) initializes((0, 4)) %1) local_unnamed_addr #9 {
  store i32 0, ptr %1, align 4, !tbaa !30
  %3 = getelementptr inbounds nuw i8, ptr %0, i64 20
  %4 = getelementptr inbounds nuw i8, ptr %0, i64 12
  %5 = getelementptr inbounds nuw i8, ptr %0, i64 24
  %6 = getelementptr inbounds nuw i8, ptr %0, i64 16
  br label %7

7:                                                ; preds = %64, %2
  %8 = load i32, ptr %3, align 4, !tbaa !16
  %9 = load i32, ptr %4, align 4, !tbaa !28
  %10 = icmp ult i32 %8, %9
  %.pre77 = load i32, ptr %5, align 8, !tbaa !17
  br i1 %10, label %.lr.ph, label %._crit_edge

.lr.ph:                                           ; preds = %7, %.thread
  %11 = phi i32 [ 0, %.thread ], [ %.pre77, %7 ]
  %12 = phi i32 [ %35, %.thread ], [ %8, %7 ]
  %13 = icmp ult i32 %11, 64
  br i1 %13, label %14, label %.lr.ph..thread_crit_edge

.lr.ph..thread_crit_edge:                         ; preds = %.lr.ph
  %.pre75 = load i32, ptr %1, align 4, !tbaa !30
  br label %.thread

14:                                               ; preds = %.lr.ph
  %15 = load ptr, ptr %0, align 8, !tbaa !3
  %16 = zext i32 %12 to i64
  %17 = getelementptr inbounds nuw i64, ptr %15, i64 %16
  %18 = load i64, ptr %17, align 8, !tbaa !21
  %19 = zext nneg i32 %11 to i64
  %20 = shl i64 %18, %19
  %.not54 = icmp eq i64 %20, 0
  %.pre76 = load i32, ptr %1, align 4, !tbaa !30
  br i1 %.not54, label %.thread, label %21

21:                                               ; preds = %14
  %22 = tail call range(i64 0, 65) i64 @llvm.ctlz.i64(i64 range(i64 1, 0) %20, i1 true)
  %23 = trunc nuw nsw i64 %22 to i32
  %24 = add i32 %.pre76, %23
  store i32 %24, ptr %1, align 4, !tbaa !30
  %25 = add nuw nsw i32 %23, 1
  %26 = load i32, ptr %5, align 8, !tbaa !17
  %27 = add i32 %25, %26
  store i32 %27, ptr %5, align 8, !tbaa !17
  %28 = icmp ugt i32 %27, 63
  br i1 %28, label %29, label %.thread58

29:                                               ; preds = %21
  %30 = load i32, ptr %3, align 4, !tbaa !16
  %31 = add i32 %30, 1
  store i32 %31, ptr %3, align 4, !tbaa !16
  br label %.thread58.sink.split

.thread:                                          ; preds = %.lr.ph..thread_crit_edge, %14
  %32 = phi i32 [ %.pre75, %.lr.ph..thread_crit_edge ], [ %.pre76, %14 ]
  %reass.sub71 = sub i32 %32, %11
  %33 = add i32 %reass.sub71, 64
  store i32 %33, ptr %1, align 4, !tbaa !30
  %34 = load i32, ptr %3, align 4, !tbaa !16
  %35 = add i32 %34, 1
  store i32 %35, ptr %3, align 4, !tbaa !16
  store i32 0, ptr %5, align 8, !tbaa !17
  %36 = load i32, ptr %4, align 4, !tbaa !28
  %37 = icmp ult i32 %35, %36
  br i1 %37, label %.lr.ph, label %._crit_edge

._crit_edge:                                      ; preds = %.thread, %7
  %38 = phi i32 [ %.pre77, %7 ], [ 0, %.thread ]
  %.lcssa = phi i32 [ %8, %7 ], [ %35, %.thread ]
  %39 = load i32, ptr %6, align 8, !tbaa !29
  %40 = shl i32 %39, 3
  %41 = icmp ugt i32 %40, %38
  br i1 %41, label %42, label %64

42:                                               ; preds = %._crit_edge
  %43 = load ptr, ptr %0, align 8, !tbaa !3
  %44 = zext i32 %.lcssa to i64
  %45 = getelementptr inbounds nuw i64, ptr %43, i64 %44
  %46 = load i64, ptr %45, align 8, !tbaa !21
  %47 = sub i32 64, %40
  %48 = zext nneg i32 %47 to i64
  %49 = shl nsw i64 -1, %48
  %50 = and i64 %46, %49
  %51 = zext nneg i32 %38 to i64
  %52 = shl i64 %50, %51
  %.not = icmp eq i64 %52, 0
  br i1 %.not, label %.thread60, label %56

.thread60:                                        ; preds = %42
  %53 = sub i32 %40, %38
  %54 = load i32, ptr %1, align 4, !tbaa !30
  %55 = add i32 %53, %54
  store i32 %55, ptr %1, align 4, !tbaa !30
  store i32 %40, ptr %5, align 8, !tbaa !17
  br label %64

56:                                               ; preds = %42
  %57 = tail call range(i64 0, 65) i64 @llvm.ctlz.i64(i64 range(i64 1, 0) %52, i1 true)
  %58 = trunc nuw nsw i64 %57 to i32
  %59 = load i32, ptr %1, align 4, !tbaa !30
  %60 = add i32 %59, %58
  store i32 %60, ptr %1, align 4, !tbaa !30
  %61 = add nuw nsw i32 %58, 1
  %62 = load i32, ptr %5, align 8, !tbaa !17
  %63 = add i32 %61, %62
  br label %.thread58.sink.split

64:                                               ; preds = %.thread60, %._crit_edge
  %65 = tail call fastcc i32 @bitreader_read_from_client_(ptr noundef nonnull %0)
  %.not53 = icmp eq i32 %65, 0
  br i1 %.not53, label %.thread58, label %7

.thread58.sink.split:                             ; preds = %56, %29
  %.sink = phi i32 [ 0, %29 ], [ %63, %56 ]
  store i32 %.sink, ptr %5, align 8, !tbaa !17
  br label %.thread58

.thread58:                                        ; preds = %64, %.thread58.sink.split, %21
  %.3 = phi i32 [ 1, %21 ], [ 1, %.thread58.sink.split ], [ 0, %64 ]
  ret i32 %.3
}